target datalayout = "e-m:e-p270:32:32-p271:32:32-p272:64:64-i64:64-i128:128-f80:128-n8:16:32:64-S128"
target triple = "x86_64-pc-linux-gnu"

; Function Attrs: mustprogress nounwind uwtable
define noundef i32 @_ZNK10open_spiel10backgammon15BackgammonState8OpponentEi(ptr noundef nonnull align 8 dereferenceable(216) %0, i32 noundef %1) #4 align 2 {
  %3 = alloca ptr, align 8
  %4 = alloca i32, align 4
  store ptr %0, ptr %3, align 8
  store i32 %1, ptr %4, align 4
  %5 = load i32, ptr %4, align 4
  %6 = sub nsw i32 1, %5
  ret i32 %6
}

; Function Attrs: mustprogress uwtable
define noundef zeroext i1 @_ZNK10open_spiel10backgammon15BackgammonState5IsHitEiii(ptr noundef nonnull align 8 dereferenceable(216) %0, i32 noundef %1, i32 noundef %2, i32 noundef %3) #5 align 2 {
  %5 = alloca i1, align 1
  %6 = alloca ptr, align 8
  %7 = alloca i32, align 4
  %8 = alloca i32, align 4
  %9 = alloca i32, align 4
  %10 = alloca i32, align 4
  store ptr %0, ptr %6, align 8
  store i32 %1, ptr %7, align 4
  store i32 %2, ptr %8, align 4
  store i32 %3, ptr %9, align 4
  %11 = load ptr, ptr %6, align 8
  %12 = load i32, ptr %8, align 4
  %13 = icmp ne i32 %12, -1
  br i1 %13, label %14, label %29

14:                                               ; preds = %4
  %15 = load i32, ptr %7, align 4
  %16 = load i32, ptr %8, align 4
  %17 = load i32, ptr %9, align 4
  %18 = call noundef i32 @_ZNK10open_spiel10backgammon15BackgammonState12PositionFromEiii(ptr noundef nonnull align 8 dereferenceable(216) %11, i32 noundef %15, i32 noundef %16, i32 noundef %17)
  store i32 %18, ptr %10, align 4
  %19 = load i32, ptr %10, align 4
  %20 = icmp ne i32 %19, 101
  br i1 %20, label %21, label %27

21:                                               ; preds = %14
  %22 = load i32, ptr %7, align 4
  %23 = call noundef i32 @_ZNK10open_spiel10backgammon15BackgammonState8OpponentEi(ptr noundef nonnull align 8 dereferenceable(216) %11, i32 noundef %22)
  %24 = load i32, ptr %10, align 4
  %25 = call noundef i32 @_ZNK10open_spiel10backgammon15BackgammonState5boardEii(ptr noundef nonnull align 8 dereferenceable(216) %11, i32 noundef %23, i32 noundef %24)
  %26 = icmp eq i32 %25, 1
  br label %27

27:                                               ; preds = %21, %14
  %28 = phi i1 [ false, %14 ], [ %26, %21 ]
  store i1 %28, ptr %5, align 1
  br label %30

29:                                               ; preds = %4
  store i1 false, ptr %5, align 1
  br label %30

30:                                               ; preds = %29, %27
  %31 = load i1, ptr %5, align 1
  ret i1 %31
}