; Function Attrs: mustprogress uwtable
define noundef zeroext i1 @_ZNK10open_spiel10backgammon15BackgammonState5IsHitEiii(ptr nocapture noundef nonnull readonly align 8 dereferenceable(216) %0, i32 noundef %1, i32 noundef %2, i32 noundef %3) local_unnamed_addr #4 align 2 {
  %.not = icmp eq i32 %2, -1
  br i1 %.not, label %11, label %5

5:                                                ; preds = %4
  %6 = tail call noundef i32 @_ZNK10open_spiel10backgammon15BackgammonState12PositionFromEiii(ptr nonnull align 8 poison, i32 noundef %1, i32 noundef %2, i32 noundef %3)
  %.not10 = icmp eq i32 %6, 101
  br i1 %.not10, label %11, label %7

7:                                                ; preds = %5
  %8 = sub nsw i32 1, %1
  %9 = tail call noundef i32 @_ZNK10open_spiel10backgammon15BackgammonState5boardEii(ptr noundef nonnull align 8 dereferenceable(216) %0, i32 noundef %8, i32 noundef %6)
  %10 = icmp eq i32 %9, 1
  br label %11

11:                                               ; preds = %4, %5, %7
  %.0 = phi i1 [ false, %5 ], [ %10, %7 ], [ false, %4 ]
  ret i1 %.0
}